target datalayout = "e-m:e-p270:32:32-p271:32:32-p272:64:64-i64:64-i128:128-f80:128-n8:16:32:64-S128"
target triple = "x86_64-pc-linux-gnu"

%struct.JNINativeInterface_ = type { ptr, ptr, ptr, ptr, ptr, ptr, ptr, ptr, ptr, ptr, ptr, ptr, ptr, ptr, ptr, ptr, ptr, ptr, ptr, ptr, ptr, ptr, ptr, ptr, ptr, ptr, ptr, ptr, ptr, ptr, ptr, ptr, ptr, ptr, ptr, ptr, ptr, ptr, ptr, ptr, ptr, ptr, ptr, ptr, ptr, ptr, ptr, ptr, ptr, ptr, ptr, ptr, ptr, ptr, ptr, ptr, ptr, ptr, ptr, ptr, ptr, ptr, ptr, ptr, ptr, ptr, ptr, ptr, ptr, ptr, ptr, ptr, ptr, ptr, ptr, ptr, ptr, ptr, ptr, ptr, ptr, ptr, ptr, ptr, ptr, ptr, ptr, ptr, ptr, ptr, ptr, ptr, ptr, ptr, ptr, ptr, ptr, ptr, ptr, ptr, ptr, ptr, ptr, ptr, ptr, ptr, ptr, ptr, ptr, ptr, ptr, ptr, ptr, ptr, ptr, ptr, ptr, ptr, ptr, ptr, ptr, ptr, ptr, ptr, ptr, ptr, ptr, ptr, ptr, ptr, ptr, ptr, ptr, ptr, ptr, ptr, ptr, ptr, ptr, ptr, ptr, ptr, ptr, ptr, ptr, ptr, ptr, ptr, ptr, ptr, ptr, ptr, ptr, ptr, ptr, ptr, ptr, ptr, ptr, ptr, ptr, ptr, ptr, ptr, ptr, ptr, ptr, ptr, ptr, ptr, ptr, ptr, ptr, ptr, ptr, ptr, ptr, ptr, ptr, ptr, ptr, ptr, ptr, ptr, ptr, ptr, ptr, ptr, ptr, ptr, ptr, ptr, ptr, ptr, ptr, ptr, ptr, ptr, ptr, ptr, ptr, ptr, ptr, ptr, ptr, ptr, ptr, ptr, ptr, ptr, ptr, ptr, ptr, ptr, ptr, ptr, ptr, ptr, ptr, ptr, ptr, ptr, ptr, ptr, ptr, ptr, ptr, ptr, ptr, ptr, ptr, ptr, ptr, ptr, ptr }

@awt_UseType4Patch = hidden global i8 0, align 1
@.str.2 = private unnamed_addr constant [7 x i8] c"window\00", align 1
@.str.3 = private unnamed_addr constant [2 x i8] c"J\00", align 1
@windowID = hidden global ptr null, align 8
@.str.4 = private unnamed_addr constant [7 x i8] c"target\00", align 1
@.str.5 = private unnamed_addr constant [21 x i8] c"Ljava/awt/Component;\00", align 1
@targetID = hidden global ptr null, align 8
@.str.6 = private unnamed_addr constant [15 x i8] c"graphicsConfig\00", align 1
@.str.7 = private unnamed_addr constant [28 x i8] c"Lsun/awt/X11GraphicsConfig;\00", align 1
@graphicsConfigID = hidden global ptr null, align 8
@.str.8 = private unnamed_addr constant [10 x i8] c"drawState\00", align 1
@.str.9 = private unnamed_addr constant [2 x i8] c"I\00", align 1
@drawStateID = hidden global ptr null, align 8
@.str.10 = private unnamed_addr constant [21 x i8] c"_AWT_USE_TYPE4_PATCH\00", align 1
@.str.11 = private unnamed_addr constant [5 x i8] c"true\00", align 1
@.str.12 = private unnamed_addr constant [6 x i8] c"false\00", align 1

; Function Attrs: nounwind uwtable
define void @Java_sun_awt_X11_XWindow_initIDs(ptr noundef %0, ptr noundef %1) #0 {
  %3 = alloca ptr, align 8
  %4 = alloca ptr, align 8
  %5 = alloca ptr, align 8
  store ptr %0, ptr %3, align 8
  store ptr %1, ptr %4, align 8
  store ptr null, ptr %5, align 8
  %6 = load ptr, ptr %3, align 8
  %7 = load ptr, ptr %6, align 8
  %8 = getelementptr inbounds %struct.JNINativeInterface_, ptr %7, i32 0, i32 94
  %9 = load ptr, ptr %8, align 8
  %10 = load ptr, ptr %3, align 8
  %11 = load ptr, ptr %4, align 8
  %12 = call ptr %9(ptr noundef %10, ptr noundef %11, ptr noundef @.str.2, ptr noundef @.str.3)
  store ptr %12, ptr @windowID, align 8
  br label %13

13:                                               ; preds = %2
  %14 = load ptr, ptr @windowID, align 8
  %15 = icmp eq ptr %14, null
  br i1 %15, label %16, label %17

16:                                               ; preds = %13
  br label %79

17:                                               ; preds = %13
  br label %18

18:                                               ; preds = %17
  %19 = load ptr, ptr %3, align 8
  %20 = load ptr, ptr %19, align 8
  %21 = getelementptr inbounds %struct.JNINativeInterface_, ptr %20, i32 0, i32 94
  %22 = load ptr, ptr %21, align 8
  %23 = load ptr, ptr %3, align 8
  %24 = load ptr, ptr %4, align 8
  %25 = call ptr %22(ptr noundef %23, ptr noundef %24, ptr noundef @.str.4, ptr noundef @.str.5)
  store ptr %25, ptr @targetID, align 8
  br label %26

26:                                               ; preds = %18
  %27 = load ptr, ptr @targetID, align 8
  %28 = icmp eq ptr %27, null
  br i1 %28, label %29, label %30

29:                                               ; preds = %26
  br label %79

30:                                               ; preds = %26
  br label %31

31:                                               ; preds = %30
  %32 = load ptr, ptr %3, align 8
  %33 = load ptr, ptr %32, align 8
  %34 = getelementptr inbounds %struct.JNINativeInterface_, ptr %33, i32 0, i32 94
  %35 = load ptr, ptr %34, align 8
  %36 = load ptr, ptr %3, align 8
  %37 = load ptr, ptr %4, align 8
  %38 = call ptr %35(ptr noundef %36, ptr noundef %37, ptr noundef @.str.6, ptr noundef @.str.7)
  store ptr %38, ptr @graphicsConfigID, align 8
  br label %39

39:                                               ; preds = %31
  %40 = load ptr, ptr @graphicsConfigID, align 8
  %41 = icmp eq ptr %40, null
  br i1 %41, label %42, label %43

42:                                               ; preds = %39
  br label %79

43:                                               ; preds = %39
  br label %44

44:                                               ; preds = %43
  %45 = load ptr, ptr %3, align 8
  %46 = load ptr, ptr %45, align 8
  %47 = getelementptr inbounds %struct.JNINativeInterface_, ptr %46, i32 0, i32 94
  %48 = load ptr, ptr %47, align 8
  %49 = load ptr, ptr %3, align 8
  %50 = load ptr, ptr %4, align 8
  %51 = call ptr %48(ptr noundef %49, ptr noundef %50, ptr noundef @.str.8, ptr noundef @.str.9)
  store ptr %51, ptr @drawStateID, align 8
  br label %52

52:                                               ; preds = %44
  %53 = load ptr, ptr @drawStateID, align 8
  %54 = icmp eq ptr %53, null
  br i1 %54, label %55, label %56

55:                                               ; preds = %52
  br label %79

56:                                               ; preds = %52
  br label %57

57:                                               ; preds = %56
  %58 = call ptr @getenv(ptr noundef @.str.10) #4
  store ptr %58, ptr %5, align 8
  %59 = load ptr, ptr %5, align 8
  %60 = icmp ne ptr %59, null
  br i1 %60, label %61, label %79

61:                                               ; preds = %57
  %62 = load ptr, ptr %5, align 8
  %63 = getelementptr inbounds i8, ptr %62, i64 0
  %64 = load i8, ptr %63, align 1
  %65 = sext i8 %64 to i32
  %66 = icmp ne i32 %65, 0
  br i1 %66, label %67, label %79

67:                                               ; preds = %61
  %68 = load ptr, ptr %5, align 8
  %69 = call i32 @strncmp(ptr noundef @.str.11, ptr noundef %68, i64 noundef 4) #5
  %70 = icmp eq i32 %69, 0
  br i1 %70, label %71, label %72

71:                                               ; preds = %67
  store i8 1, ptr @awt_UseType4Patch, align 1
  br label %78

72:                                               ; preds = %67
  %73 = load ptr, ptr %5, align 8
  %74 = call i32 @strncmp(ptr noundef @.str.12, ptr noundef %73, i64 noundef 5) #5
  %75 = icmp eq i32 %74, 0
  br i1 %75, label %76, label %77

76:                                               ; preds = %72
  store i8 0, ptr @awt_UseType4Patch, align 1
  br label %77

77:                                               ; preds = %76, %72
  br label %78

78:                                               ; preds = %77, %71
  br label %79

79:                                               ; preds = %78, %61, %57, %55, %42, %29, %16
  ret void
}