; Function Attrs: nounwind uwtable
define void @Java_sun_awt_X11_XWindow_initIDs(ptr noundef %0, ptr noundef %1) local_unnamed_addr #0 {
  %3 = load ptr, ptr %0, align 8
  %4 = getelementptr inbounds i8, ptr %3, i64 752
  %5 = load ptr, ptr %4, align 8
  %6 = tail call ptr %5(ptr noundef nonnull %0, ptr noundef %1, ptr noundef nonnull @.str.2, ptr noundef nonnull @.str.3) #6
  store ptr %6, ptr @windowID, align 8
  %7 = icmp eq ptr %6, null
  br i1 %7, label %36, label %8

8:                                                ; preds = %2
  %9 = load ptr, ptr %0, align 8
  %10 = getelementptr inbounds i8, ptr %9, i64 752
  %11 = load ptr, ptr %10, align 8
  %12 = tail call ptr %11(ptr noundef nonnull %0, ptr noundef %1, ptr noundef nonnull @.str.4, ptr noundef nonnull @.str.5) #6
  store ptr %12, ptr @targetID, align 8
  %13 = icmp eq ptr %12, null
  br i1 %13, label %36, label %14

14:                                               ; preds = %8
  %15 = load ptr, ptr %0, align 8
  %16 = getelementptr inbounds i8, ptr %15, i64 752
  %17 = load ptr, ptr %16, align 8
  %18 = tail call ptr %17(ptr noundef nonnull %0, ptr noundef %1, ptr noundef nonnull @.str.6, ptr noundef nonnull @.str.7) #6
  store ptr %18, ptr @graphicsConfigID, align 8
  %19 = icmp eq ptr %18, null
  br i1 %19, label %36, label %20

20:                                               ; preds = %14
  %21 = load ptr, ptr %0, align 8
  %22 = getelementptr inbounds i8, ptr %21, i64 752
  %23 = load ptr, ptr %22, align 8
  %24 = tail call ptr %23(ptr noundef nonnull %0, ptr noundef %1, ptr noundef nonnull @.str.8, ptr noundef nonnull @.str.9) #6
  store ptr %24, ptr @drawStateID, align 8
  %25 = icmp eq ptr %24, null
  br i1 %25, label %36, label %26

26:                                               ; preds = %20
  %27 = tail call ptr @getenv(ptr noundef nonnull @.str.10) #6
  %.not = icmp eq ptr %27, null
  br i1 %.not, label %36, label %28

28:                                               ; preds = %26
  %29 = load i8, ptr %27, align 1
  %.not16 = icmp eq i8 %29, 0
  br i1 %.not16, label %36, label %30

30:                                               ; preds = %28
  %31 = tail call i32 @strncmp(ptr noundef nonnull dereferenceable(5) @.str.11, ptr noundef nonnull dereferenceable(1) %27, i64 noundef 4) #7
  %32 = icmp eq i32 %31, 0
  br i1 %32, label %.sink.split, label %33

33:                                               ; preds = %30
  %34 = tail call i32 @strncmp(ptr noundef nonnull dereferenceable(6) @.str.12, ptr noundef nonnull dereferenceable(1) %27, i64 noundef 5) #7
  %35 = icmp eq i32 %34, 0
  br i1 %35, label %.sink.split, label %36

.sink.split:                                      ; preds = %33, %30
  %.sink = phi i8 [ 1, %30 ], [ 0, %33 ]
  store i8 %.sink, ptr @awt_UseType4Patch, align 1
  br label %36

36:                                               ; preds = %.sink.split, %33, %20, %14, %8, %2, %28, %26
  ret void
}